; Function Attrs: mustprogress nounwind uwtable
define hidden noundef zeroext i1 @_ZN6hermes2vm6GCBase9IDTracker13isTrackingIDsEv(ptr noundef nonnull align 8 dereferenceable(192) %this) local_unnamed_addr #0 align 2 {
entry:
  %call1.i.i.i.i = tail call noundef i32 @pthread_mutex_lock(ptr noundef nonnull %this) #27
  %tobool.not.i.i = icmp eq i32 %call1.i.i.i.i, 0
  br i1 %tobool.not.i.i, label %_ZNSt10lock_guardISt15recursive_mutexEC2ERS0_.exit, label %if.then.i.i

if.then.i.i:                                      ; preds = %entry
  tail call void @_ZSt20__throw_system_errori(i32 noundef %call1.i.i.i.i) #29
  unreachable

_ZNSt10lock_guardISt15recursive_mutexEC2ERS0_.exit: ; preds = %entry
  %NumEntries.i.i.i = getelementptr inbounds i8, ptr %this, i64 56
  %0 = load i32, ptr %NumEntries.i.i.i, align 8
  %cmp.i = icmp ne i32 %0, 0
  %call1.i.i.i.i1 = tail call noundef i32 @pthread_mutex_unlock(ptr noundef nonnull %this) #27
  ret i1 %cmp.i
}